target datalayout = "e-m:e-p270:32:32-p271:32:32-p272:64:64-i64:64-i128:128-f80:128-n8:16:32:64-S128"
target triple = "x86_64-pc-linux-gnu"

%struct.slurm_step_id_msg = type { i64, i32, i32, i32 }
%struct.srun_job = type { %struct.slurm_step_id_msg, i32, i32, ptr, i32, i32, i32, i32, ptr, ptr, ptr, ptr, i32, i32, i32, i16, i16, i16, i16, i32, %union.pthread_mutex_t, %union.pthread_cond_t, i32, ptr, ptr, ptr, ptr, ptr, ptr, i32, i16, i16, i16, ptr, ptr, ptr, ptr, i32, ptr, i32, ptr }
%union.pthread_mutex_t = type { %struct.__pthread_mutex_s }
%struct.__pthread_mutex_s = type { i32, i32, i32, i32, i32, i16, i16, %struct.__pthread_internal_list }
%struct.__pthread_internal_list = type { ptr, ptr }
%union.pthread_cond_t = type { %struct.__pthread_cond_s }
%struct.__pthread_cond_s = type { %union.__atomic_wide_counter, %union.__atomic_wide_counter, [2 x i32], [2 x i32], i32, i32, [2 x i32] }
%union.__atomic_wide_counter = type { i64 }
%struct.slurm_msg = type { %struct.sockaddr_storage, ptr, i32, i32, i32, i8, i32, i8, i32, ptr, ptr, i32, ptr, ptr, i16, i8, i16, i16, %struct.forward, ptr, %struct.sockaddr_storage, ptr }
%struct.forward = type { %struct.slurm_node_alias_addrs_t, i16, i16, ptr, i32, i16, i16 }
%struct.slurm_node_alias_addrs_t = type { i64, ptr, ptr, i32, ptr }
%struct.sockaddr_storage = type { i16, [118 x i8], i64 }
%struct.step_complete_msg = type { i32, i32, %struct.slurm_step_id_msg, i32, ptr, i8 }

@working_cluster_rec = external global ptr, align 8

; Function Attrs: nounwind uwtable
define internal void @_cancel_steps(ptr noundef %0) #0 {
  %2 = alloca ptr, align 8
  %3 = alloca ptr, align 8
  %4 = alloca ptr, align 8
  %5 = alloca %struct.slurm_msg, align 8
  %6 = alloca %struct.step_complete_msg, align 8
  %7 = alloca i32, align 4
  %8 = alloca i32, align 4
  store ptr %0, ptr %2, align 8
  call void @llvm.lifetime.start.p0(i64 8, ptr %3) #10
  call void @llvm.lifetime.start.p0(i64 8, ptr %4) #10
  call void @llvm.lifetime.start.p0(i64 424, ptr %5) #10
  call void @llvm.lifetime.start.p0(i64 56, ptr %6) #10
  call void @llvm.lifetime.start.p0(i64 4, ptr %7) #10
  store i32 0, ptr %7, align 4
  %9 = load ptr, ptr %2, align 8
  %10 = icmp ne ptr %9, null
  br i1 %10, label %12, label %11

11:                                               ; preds = %1
  store i32 1, ptr %8, align 4
  br label %43

12:                                               ; preds = %1
  call void @slurm_msg_t_init(ptr noundef %5)
  %13 = getelementptr inbounds nuw %struct.slurm_msg, ptr %5, i32 0, i32 16
  store i16 5016, ptr %13, align 4
  %14 = getelementptr inbounds nuw %struct.slurm_msg, ptr %5, i32 0, i32 13
  store ptr %6, ptr %14, align 8
  call void @llvm.memset.p0.i64(ptr align 8 %6, i8 0, i64 56, i1 false)
  %15 = getelementptr inbounds nuw %struct.step_complete_msg, ptr %6, i32 0, i32 3
  store i32 0, ptr %15, align 8
  %16 = load ptr, ptr %2, align 8
  %17 = call ptr @list_iterator_create(ptr noundef %16)
  store ptr %17, ptr %4, align 8
  br label %18

18:                                               ; preds = %29, %28, %12
  %19 = load ptr, ptr %4, align 8
  %20 = call ptr @list_next(ptr noundef %19)
  store ptr %20, ptr %3, align 8
  %21 = icmp ne ptr %20, null
  br i1 %21, label %22, label %41

22:                                               ; preds = %18
  %23 = load ptr, ptr %3, align 8
  %24 = getelementptr inbounds nuw %struct.srun_job, ptr %23, i32 0, i32 0
  %25 = getelementptr inbounds nuw %struct.slurm_step_id_msg, ptr %24, i32 0, i32 3
  %26 = load i32, ptr %25, align 8
  %27 = icmp eq i32 %26, -2
  br i1 %27, label %28, label %29

28:                                               ; preds = %22
  br label %18, !llvm.loop !39

29:                                               ; preds = %22
  %30 = getelementptr inbounds nuw %struct.step_complete_msg, ptr %6, i32 0, i32 2
  %31 = load ptr, ptr %3, align 8
  %32 = getelementptr inbounds nuw %struct.srun_job, ptr %31, i32 0, i32 0
  call void @llvm.memcpy.p0.p0.i64(ptr align 8 %30, ptr align 8 %32, i64 24, i1 false)
  %33 = getelementptr inbounds nuw %struct.step_complete_msg, ptr %6, i32 0, i32 0
  store i32 0, ptr %33, align 8
  %34 = load ptr, ptr %3, align 8
  %35 = getelementptr inbounds nuw %struct.srun_job, ptr %34, i32 0, i32 13
  %36 = load i32, ptr %35, align 4
  %37 = sub i32 %36, 1
  %38 = getelementptr inbounds nuw %struct.step_complete_msg, ptr %6, i32 0, i32 1
  store i32 %37, ptr %38, align 4
  %39 = load ptr, ptr @working_cluster_rec, align 8
  %40 = call i32 @slurm_send_recv_controller_rc_msg(ptr noundef %5, ptr noundef %7, ptr noundef %39)
  br label %18, !llvm.loop !39

41:                                               ; preds = %18
  %42 = load ptr, ptr %4, align 8
  call void @list_iterator_destroy(ptr noundef %42)
  store i32 0, ptr %8, align 4
  br label %43

43:                                               ; preds = %41, %11
  call void @llvm.lifetime.end.p0(i64 4, ptr %7) #10
  call void @llvm.lifetime.end.p0(i64 56, ptr %6) #10
  call void @llvm.lifetime.end.p0(i64 424, ptr %5) #10
  call void @llvm.lifetime.end.p0(i64 8, ptr %4) #10
  call void @llvm.lifetime.end.p0(i64 8, ptr %3) #10
  %44 = load i32, ptr %8, align 4
  switch i32 %44, label %46 [
    i32 0, label %45
    i32 1, label %45
  ]

45:                                               ; preds = %43, %43
  ret void

46:                                               ; preds = %43
  unreachable
}