; Function Attrs: nounwind uwtable
define internal fastcc void @_cancel_steps(ptr noundef %0) unnamed_addr #0 {
  %2 = alloca %struct.slurm_msg, align 8
  %3 = alloca %struct.step_complete_msg, align 8
  %4 = alloca i32, align 4
  call void @llvm.lifetime.start.p0(i64 424, ptr nonnull %2) #15
  call void @llvm.lifetime.start.p0(i64 56, ptr nonnull %3) #15
  call void @llvm.lifetime.start.p0(i64 4, ptr nonnull %4) #15
  store i32 0, ptr %4, align 4
  %.not = icmp eq ptr %0, null
  br i1 %.not, label %24, label %5

5:                                                ; preds = %1
  call void @slurm_msg_t_init(ptr noundef nonnull %2) #15
  %6 = getelementptr inbounds nuw i8, ptr %2, i64 212
  store i16 5016, ptr %6, align 4
  %7 = getelementptr inbounds nuw i8, ptr %2, i64 200
  store ptr %3, ptr %7, align 8
  call void @llvm.memset.p0.i64(ptr noundef nonnull align 8 dereferenceable(56) %3, i8 0, i64 56, i1 false)
  %8 = call ptr @list_iterator_create(ptr noundef nonnull %0) #15
  %9 = call ptr @list_next(ptr noundef %8) #15
  %.not89 = icmp eq ptr %9, null
  br i1 %.not89, label %._crit_edge, label %.lr.ph

.lr.ph:                                           ; preds = %5
  %10 = getelementptr inbounds nuw i8, ptr %3, i64 8
  %11 = getelementptr inbounds nuw i8, ptr %3, i64 4
  br label %12

12:                                               ; preds = %.lr.ph, %.backedge
  %13 = phi ptr [ %9, %.lr.ph ], [ %23, %.backedge ]
  %14 = getelementptr inbounds nuw i8, ptr %13, i64 16
  %15 = load i32, ptr %14, align 8
  %16 = icmp eq i32 %15, -2
  br i1 %16, label %.backedge, label %17

17:                                               ; preds = %12
  call void @llvm.memcpy.p0.p0.i64(ptr noundef nonnull align 8 dereferenceable(24) %10, ptr noundef nonnull align 8 dereferenceable(24) %13, i64 24, i1 false)
  store i32 0, ptr %3, align 8
  %18 = getelementptr inbounds nuw i8, ptr %13, i64 92
  %19 = load i32, ptr %18, align 4
  %20 = add i32 %19, -1
  store i32 %20, ptr %11, align 4
  %21 = load ptr, ptr @working_cluster_rec, align 8
  %22 = call i32 @slurm_send_recv_controller_rc_msg(ptr noundef nonnull %2, ptr noundef nonnull %4, ptr noundef %21) #15
  br label %.backedge

.backedge:                                        ; preds = %17, %12
  %23 = call ptr @list_next(ptr noundef %8) #15
  %.not8 = icmp eq ptr %23, null
  br i1 %.not8, label %._crit_edge, label %12, !llvm.loop !45

._crit_edge:                                      ; preds = %.backedge, %5
  call void @list_iterator_destroy(ptr noundef %8) #15
  br label %24

24:                                               ; preds = %1, %._crit_edge
  call void @llvm.lifetime.end.p0(i64 4, ptr nonnull %4) #15
  call void @llvm.lifetime.end.p0(i64 56, ptr nonnull %3) #15
  call void @llvm.lifetime.end.p0(i64 424, ptr nonnull %2) #15
  ret void
}